(dp0
S' b'
p1
F0.20131249415874483
sS' c'
p2
F0.19788194709591866
sS'gu'
p3
F0.15747673253175748
sS' a'
p4
F0.16741172115408834
sS' f'
p5
F0.19602850748832035
sS' g'
p6
F0.19844999551773074
sS' d'
p7
F0.16481201791336067
sS' e'
p8
F0.17795966892549397
sS' k'
p9
F0.20128001022338868
sS' i'
p10
F0.21418359840121587
sS' n'
p11
F0.20236986533403398
sV o
p12
F0.20768227498521322
sS' l'
p13
F0.20145198187233937
sS' m'
p14
F0.2030192007897923
sS' r'
p15
F0.1994937623663686
sS' s'
p16
F0.1883057838145247
sS' p'
p17
F0.19593950346708297
sS'gt'
p18
F0.19012828152149916
sS'gc'
p19
F0.17194697960392327
sV w
p20
F0.18002722148217154
sS'ga'
p21
F0.18586298995951345
sS' u'
p22
F0.2031299959421158
sS'go'
p23
F0.1684024190071537
sS'gn'
p24
F0.19428150019645693
sS' x'
p25
F0.20343749809265138
sVgl
p26
F0.19096365004599095
sS'gi'
p27
F0.19104800309818906
sS'gh'
p28
F0.17570049778865746
sS'-e'
p29
F0.2010000014305115
sS'ty'
p30
F0.17259364826473472
sS'tt'
p31
F0.1874763846986012
sS'tu'
p32
F0.1267698516041304
sS'tr'
p33
F0.18528393235715643
sS'ts'
p34
F0.18093006694284755
sS'tn'
p35
F0.1950999999046326
sS'to'
p36
F0.14371986152949667
sS'tl'
p37
F0.1955230274912715
sS'tm'
p38
F0.18749852999182046
sS'th'
p39
F0.15122679582554452
sS'ti'
p40
F0.16524712960833499
sS' ['
p41
F0.1914914729023874
sS'te'
p42
F0.16226322437781626
sS'tb'
p43
F0.1993500018119812
sS'tc'
p44
F0.19203012981306952
sS'ta'
p45
F0.14384087663222686
sS' -'
p46
F0.19889889769226313
sS' 3'
p47
F0.1973499917984009
sS'gy'
p48
F0.1906475089788437
sS'g '
p49
F0.19566686282656337
sS' ='
p50
F0.2003500008583069
sVgg
p51
F0.19471512187123302
sS'- '
p52
F0.1965957174342871
sS'--'
p53
F0.19570000410079957
sS'ge'
p54
F0.13047404968731657
sS't.'
p55
F0.19829999446868898
sS'p'
p56
F0.185172081689775
sVGe
p57
F0.20080000400543213
sS'Ga'
p58
F0.2044809733819962
sS'-2'
p59
F0.19457249808311464
sS't '
p60
F0.1839455821408851
sS'zo'
p61
F0.19406937397122384
sS' t'
p62
F0.19774689558273748
sS'za'
p63
F0.20160000562667849
sV y
p64
F0.20128312865495684
sS'Ma'
p65
F0.20286111338942425
sS'Mi'
p66
F0.19943250524997713
sS'['
p67
F0.1968000078201294
sS'ML'
p68
F0.1965000057220459
sS'30'
p69
F0.19305999624729156
sS'3-'
p70
F0.20155000925064087
sS'3 '
p71
F0.19838250505924226
sS'S.'
p72
F0.20130000352859498
sS'S '
p73
F0.19714999437332154
sS'Fr'
p74
F0.19818315462291242
sS'm '
p75
F0.20271137441880696
sS'ip'
p76
F0.18693621797096285
sS'Fi'
p77
F0.20189999580383303
sS'<<'
p78
F0.1983575050830841
sS'Fo'
p79
F0.200699999332428
sS'gA'
p80
F0.1990000033378601
sS'St'
p81
F0.1918559950053692
sS'99'
p82
F0.19774999856948855
sS'+ '
p83
F0.19975000858306885
sS'So'
p84
F0.20160000562667849
sS'iv'
p85
F0.1990999960899353
sS'97'
p86
F0.20139999628067018
sS'me'
p87
F0.14830636847735323
sS'md'
p88
F0.1923863935542107
sVmg
p89
F0.19954999923706057
sS'ma'
p90
F0.16794955433878944
sS'f'
p91
F0.20059999465942385
sS'mm'
p92
F0.18760725038386455
sS'ml'
p93
F0.1942964853936054
sS'mo'
p94
F0.17177281231307368
sS'mn'
p95
F0.19235000848770142
sS'mi'
p96
F0.18859563516086994
sVST
p97
F0.19609999895095825
sS'mp'
p98
F0.1973906395822324
sVms
p99
F0.19929999351501465
sS'La'
p100
F0.20089999675750733
sVLo
p101
F0.20364700547456743
sS'f '
p102
F0.15322854934292046
sS'oa'
p103
F0.1961500072479248
sS'f.'
p104
F0.17859624735548743
sS', '
p105
F0.20575889595912375
sS'LL'
p106
F0.1969999933242798
sS'=='
p107
F0.19626288512945175
sS's.'
p108
F0.20154999732971193
sS'LP'
p109
F0.19964999198913574
sS's '
p110
F0.13661618383471358
sS'fp'
p111
F0.19700000524520875
sVfr
p112
F0.1943078639084777
sS'ft'
p113
F0.19473887107372284
sS'fu'
p114
F0.18658089537376166
sS'fy'
p115
F0.19644999742507935
sS'fa'
p116
F0.17473583356340097
sS'fe'
p117
F0.19055396769215743
sS'ff'
p118
F0.1949628293642022
sS'fg'
p119
F0.1947500014305115
sS'fi'
p120
F0.16321468690436242
sS'fj'
p121
F0.19505000352859497
sS'fk'
p122
F0.19264999866485596
sS'fl'
p123
F0.1963449995517731
sS'fn'
p124
F0.1972499990463257
sS'fo'
p125
F0.14161114202882905
sS'a'
p126
F0.1945324890613556
sVsy
p127
F0.1880497678706749
sS'sx'
p128
F0.20115000247955322
sS'Yo'
p129
F0.198647491812706
sS'ss'
p130
F0.19174737270822403
sS'sr'
p131
F0.2006500029563904
sS'sp'
p132
F0.19676000881195072
sS'sw'
p133
F0.20274129037529234
sS'su'
p134
F0.18527931795090438
sS'st'
p135
F0.13942788243827853
sS'sk'
p136
F0.1959608424654444
sS'si'
p137
F0.15954040517275295
sVsh
p138
F0.15852208489403194
sS'so'
p139
F0.11203345154979087
sS'sn'
p140
F0.19772501158714295
sS'sl'
p141
F0.1856625007390976
sVsa
p142
F0.1980310130827882
sS'se'
p143
F0.20256972477246887
sS'sd'
p144
F0.19080000162124636
sS'__'
p145
F0.17646525814412348
sS'y '
p146
F0.2086015326271683
sS' 5'
p147
F0.19904999971389772
sS'Re'
p148
F0.20755225933583082
sS'Ri'
p149
F0.19885000228881838
sS'lf'
p150
F0.1619183514665734
sVld
p151
F0.1887236879313419
sS'le'
p152
F0.14271068528091047
sS'20'
p153
F0.19469999313354494
sS'la'
p154
F0.15450486486369905
sV_w
p155
F0.20150000095367432
sS'lo'
p156
F0.1946686650484178
sS'll'
p157
F0.17172537025155926
sS'lm'
p158
F0.2016999983787537
sS'_s'
p159
F0.20225000619888306
sS'lk'
p160
F0.19189999341964722
sS'li'
p161
F0.2063935013124577
sVlt
p162
F0.19904999971389772
sS'lu'
p163
F0.2027675043344498
sS'2 '
p164
F0.19791561207771302
sS'ls'
p165
F0.18181433668512403
sS'lp'
p166
F0.2007855003833771
sS'2-'
p167
F0.20085000038146975
sS'_d'
p168
F0.2003000044822693
sS'ly'
p169
F0.20348575172424319
sS'yo'
p170
F0.17198585844157713
sVyn
p171
F0.19905001163482666
sS'ya'
p172
F0.1896221356574595
sS'yb'
p173
F0.1963975070714951
sS'ye'
p174
F0.19620575217008593
sS'yd'
p175
F0.20215000152587892
sVyp
p176
F0.1978500032424927
sVys
p177
F0.18879901587602516
sS'yt'
p178
F0.178706066804841
sVyw
p179
F0.20200998771190645
sS'l '
p180
F0.2068110436795463
sS'l,'
p181
F0.20225000619888306
sVem
p182
F0.17713497840647777
sS'el'
p183
F0.1577021581066545
sS'eo'
p184
F0.19564500975608826
sS'en'
p185
F0.13875315642773958
sS'ei'
p186
F0.1899575000166893
sS'ej'
p187
F0.19609999895095825
sS'ee'
p188
F0.1834585508277557
sS'ed'
p189
F0.19562567847628184
sS'eg'
p190
F0.1942875032424927
sS'ef'
p191
F0.17300409233798764
sS'ea'
p192
F0.18810074844837457
sS'ec'
p193
F0.19697748218757588
sS'eb'
p194
F0.17371292275974598
sS'88'
p195
F0.1965000057220459
sS'ey'
p196
F0.1485886026468631
sS'ex'
p197
F0.13222770561156594
sS'82'
p198
F0.19425000190734865
sS'et'
p199
F0.1217644460439151
sS'ew'
p200
F0.1904555787346088
sS'ev'
p201
F0.18215603324629395
sVep
p202
F0.19103711858808994
sS'es'
p203
F0.2020667343335023
sS'er'
p204
F0.18477349587584038
sS'rt'
p205
F0.18036146295657668
sS'ru'
p206
F0.1861228899717331
sS'rv'
p207
F0.20282751250267028
sS'rp'
p208
F0.20094999313354495
sS'rr'
p209
F0.19011480080250517
sS'rs'
p210
F0.20872353596092763
sS'ry'
p211
F0.14938458627928636
sVrd
p212
F0.2060957206755846
sS're'
p213
F0.18507568103502972
sS'rf'
p214
F0.20120749759674075
sS'rg'
p215
F0.20245000362396243
sS'ra'
p216
F0.15648079084618935
sS'rc'
p217
F0.20476941527832043
sVrl
p218
F0.1865374999046326
sS'rm'
p219
F0.17902323481121832
sS'rn'
p220
F0.16435700520024799
sS'ro'
p221
F0.14856309827119613
sS'ri'
p222
F0.14210413471128772
sS'rk'
p223
F0.1827450100541115
sS'-3'
p224
F0.20215000152587892
sS'e '
p225
F0.10131682429425533
sS'e<'
p226
F0.2021334946811199
sS'En'
p227
F0.19665000677108765
sS'++'
p228
F0.2000499987602234
sS'Ed'
p229
F0.20154999732971193
sS'r '
p230
F0.13298075546851076
sV+=
p231
F0.20075000762939454
sS'xi'
p232
F0.15989800527058712
sS'xo'
p233
F0.19764999389648438
sV>>
p234
F0.1998531763625145
sVxc
p235
F0.20181750524044037
sVxa
p236
F0.20224999427795412
sVxp
p237
F0.19034857296967506
sVxt
p238
F0.18513649353981018
sS'X '
p239
F0.19824999809265137
sS'Ka'
p240
F0.2035774909257889
sS'x.'
p241
F0.19674999952316286
sS'x '
p242
F0.17264153084628148
sS'10'
p243
F0.2024899904727936
sS'12'
p244
F0.19544999837875368
sS'18'
p245
F0.20086249935626985
sS'Y '
p246
F0.19925000905990603
sS'1/'
p247
F0.20015000343322756
sS'1.'
p248
F0.19322000670433045
sVQ 
p249
F0.19920000076293948
sS'k '
p250
F0.2016925005912781
sS'aj'
p251
F0.19534999370574951
sVDi
p252
F0.20230000257492067
sS'De'
p253
F0.209776345977053
sS'Dr'
p254
F0.20104999780654909
sS'28'
p255
F0.19649999380111696
sS'SS'
p256
F0.2001750020980835
sS'7 '
p257
F0.20154999732971193
sS'ka'
p258
F0.16368479175238557
sS'ke'
p259
F0.13526440765192504
sS'kk'
p260
F0.19084999799728394
sS'kj'
p261
F0.1888450073003769
sS'ki'
p262
F0.19825560181590846
sS'kh'
p263
F0.2018499994277954
sS'ko'
p264
F0.19691500294208528
sS'kn'
p265
F0.19
sS'kl'
p266
F0.19517953933447602
sS'ks'
p267
F0.19207521856652202
sS'ky'
p268
F0.20472749876976015
sS'QL'
p269
F0.1952749984264374
sS'd.'
p270
F0.19800000429153444
sS'd '
p271
F0.13814599536383762
sS'JS'
p272
F0.19884999036788942
sS'=l'
p273
F0.19920000076293948
sS'We'
p274
F0.20165000200271607
sS'Wo'
p275
F0.1997499966621399
sS'Ju'
p276
F0.20039999723434448
sS'=['
p277
F0.1972499990463257
sS'Js'
p278
F0.20239999532699587
sVdo
p279
F0.15080411487121576
sS'dl'
p280
F0.20179749834537508
sS'dm'
p281
F0.20150000095367432
sS'dj'
p282
F0.18827913120985032
sS'dk'
p283
F0.20298500645160678
sS'di'
p284
F0.1633389441672676
sS'df'
p285
F0.19010000467300417
sS'dd'
p286
F0.1945708616903864
sS'de'
p287
F0.18762794078539974
sVda
p288
F0.18245150553762265
sS'= '
p289
F0.19774999856948855
sS'dy'
p290
F0.19670000314712527
sS'du'
p291
F0.1797476024680795
sS'dr'
p292
F0.20245000362396243
sS'ds'
p293
F0.1851334542186808
sVdp
p294
F0.19779999494552614
sVqu
p295
F0.19587504678527812
sS'h'
p296
F0.19529999732971193
sS'w '
p297
F0.17455274101278184
sV]]
p298
F0.12664375879635142
sS'Pa'
p299
F0.19904999971389772
sS'Pl'
p300
F0.20150000095367432
sS'03'
p301
F0.19874999761581422
sS'00'
p302
F0.18730539084587544
sS'PI'
p303
F0.20224999427795412
sS'PL'
p304
F0.1997999930381775
sS'we'
p305
F0.19671102351679953
sS'wb'
p306
F0.19700000524520875
sS'wa'
p307
F0.18473116360712555
sVwo
p308
F0.16528849032175746
sVwn
p309
F0.19096249568462373
sS'wl'
p310
F0.20006250905990602
sS'wi'
p311
F0.17324176316226264
sVwh
p312
F0.1758460226718593
sS'RO'
p313
F0.19799999237060548
sS'jo'
p314
F0.19594657229453324
sS'wr'
p315
F0.2021999979019165
sS'jd'
p316
F0.1963900010585785
sS'je'
p317
F0.1964956897777319
sS'ja'
p318
F0.19625
sS's'
p319
F0.1937999987602234
sS'TT'
p320
F0.2024000072479248
sS'ub'
p321
F0.19826699188947677
sS'ck'
p322
F0.15368930186193658
sS'cj'
p323
F0.19279999971389772
sS'ci'
p324
F0.19124722472263053
sS'ch'
p325
F0.14753680667539418
sS'co'
p326
F0.1510392757545522
sS'cn'
p327
F0.185799625313282
sS'cm'
p328
F0.17301782419639217
sS'cl'
p329
F0.19892646038204434
sS'cc'
p330
F0.1990999960899353
sS'p['
p331
F0.18908749389648438
sS'ca'
p332
F0.16305620529155898
sS'cg'
p333
F0.1834519014632851
sS'ce'
p334
F0.17284021102174071
sVcd
p335
F0.18589924127459528
sS'cy'
p336
F0.19562400940656663
sS'cs'
p337
F0.19646468610286713
sS'cr'
p338
F0.19822008980306538
sS'cv'
p339
F0.19295000076293947
sS'cu'
p340
F0.1943249880075455
sS'ct'
p341
F0.16406732685106304
sVpr
p342
F0.19183995589426295
sS'ps'
p343
F0.20070862386226654
sS'pp'
p344
F0.1901278596384227
sVpt
p345
F0.1997163652078651
sS'pu'
p346
F0.20099998950958253
sS'.'
p347
F0.1983875118494034
sS'pc'
p348
F0.19770000219345094
sS'pa'
p349
F0.1800452826573266
sS'pd'
p350
F0.20105000972747805
sS'pe'
p351
F0.1703801153719658
sS'lr'
p352
F0.20104999780654909
sS'pi'
p353
F0.19771492317662773
sS'po'
p354
F0.20014040625065568
sS'pl'
p355
F0.16569319261380064
sS'pm'
p356
F0.1982376278102398
sS'CH'
p357
F0.1916499996185303
sS'am'
p358
F0.1641923945738221
sS'c '
p359
F0.1883859687578678
sS'Th'
p360
F0.20334582833821657
sS'CS'
p361
F0.19920000076293948
sS'Ch'
p362
F0.191631166125536
sS'Co'
p363
F0.20193063891908825
sS'Cl'
p364
F0.20224999427795412
sS'p '
p365
F0.20501638871112468
sS'va'
p366
F0.17891739760620168
sS've'
p367
F0.14818007929186539
sS'vi'
p368
F0.1980674469309665
sS'is'
p369
F0.1282569859784971
sS'ir'
p370
F0.18730761793798298
sS'it'
p371
F0.1811005831365032
sS'vn'
p372
F0.20180000305175783
sS'vo'
p373
F0.19255998036980632
sS'ih'
p374
F0.1969000005722046
sS'ik'
p375
F0.2029823569949126
sS'im'
p376
F0.19376100760454384
sVil
p377
F0.19520707410178048
sVio
p378
F0.1836842345210934
sVin
p379
F0.14873184867506695
sS'ia'
p380
F0.19147624504897448
sS'ic'
p381
F0.17377433591111935
sVie
p382
F0.17760275815871904
sS'id'
p383
F0.19046914577957802
sS'ig'
p384
F0.19821641600633697
sVif
p385
F0.18842261283850079
sS'I '
p386
F0.2004825006723404
sS'VA'
p387
F0.1990999960899353
sS'ni'
p388
F0.18351294907893728
sS'i '
p389
F0.1956871340681382
sS'IC'
p390
F0.2000000023841858
sS'v='
p391
F0.19894999504089356
sS'Va'
p392
F0.2041350065469742
sS'i'
p393
F0.19599999427795411
sS'Ir'
p394
F0.20089999675750733
sS'In'
p395
F0.1957769656580389
sS'/2'
p396
F0.19799999761581422
sS'ne'
p397
F0.15679407372091897
sS'Ba'
p398
F0.20098499876856804
sS'Bu'
p399
F0.19930000543594362
sS'gs'
p400
F0.18543988819240473
sV()
p401
F0.10806700972644509
sS'Ou'
p402
F0.2003500008583069
sS'gr'
p403
F0.18725934039907158
sS'Op'
p404
F0.2000000023841858
sS'5-'
p405
F0.2022999906539917
sS't'
p406
F0.19480000972747805
sS'5 '
p407
F0.20224999427795412
sS'b '
p408
F0.20339110018846035
sS';t'
p409
F0.19627999830245974
sS'ah'
p410
F0.19821999955177308
sS'o '
p411
F0.20326425244962285
sS'Hi'
p412
F0.19950000286102296
sS'He'
p413
F0.20129999160766604
sS'be'
p414
F0.1709001372831242
sS'ba'
p415
F0.16572882345799997
sS'bl'
p416
F0.20488476202705502
sS'bo'
p417
F0.20099998950958253
sS'bh'
p418
F0.19376000809669494
sS'bi'
p419
F0.1763682362575263
sS'Us'
p420
F0.19934998989105226
sS'bt'
p421
F0.20124999523162843
sS'bu'
p422
F0.19379500019550325
sVbr
p423
F0.1959174953699112
sS'bs'
p424
F0.1990122440814972
sS'Ud'
p425
F0.20165000200271607
sS'Fu'
p426
F0.19855599332451823
sS'oo'
p427
F0.1852063387754015
sS'on'
p428
F0.18256468153214583
sS'om'
p429
F0.19482499785883783
sS'ol'
p430
F0.19672620072673058
sS'ok'
p431
F0.18477114086661783
sS'oj'
p432
F0.20186750037074092
sS'oi'
p433
F0.19982250738143922
sS'og'
p434
F0.1970517384171486
sS'of'
p435
F0.14270755828479903
sS'oe'
p436
F0.1915225069522858
sS'od'
p437
F0.15735988562044328
sS'oc'
p438
F0.1719594684153706
sS'ob'
p439
F0.20331348665028812
sS'o'
p440
F0.19726750004291535
sS'UL'
p441
F0.20185001134872438
sS'oy'
p442
F0.19820000171661378
sS'ox'
p443
F0.2004499936103821
sS'ow'
p444
F0.1884658340237882
sS'ov'
p445
F0.19689500200748444
sVou
p446
F0.15118135853741263
sS'ot'
p447
F0.18507334305908904
sS'os'
p448
F0.20071890505533194
sS'or'
p449
F0.1641828482996995
sS'op'
p450
F0.18271712819363672
sS'No'
p451
F0.19770000445842745
sS'Na'
p452
F0.20080000400543213
sS'[]'
p453
F0.08881585868125537
sS'h '
p454
F0.1933355833319401
sS'NL'
p455
F0.19732000160217286
sS'. '
p456
F0.20508350148171187
sS'u '
p457
F0.2000499987602234
sS'hy'
p458
F0.1986524956226349
sS'!g'
p459
F0.20392269833505153
sS'hr'
p460
F0.18354422658841582
sS'ht'
p461
F0.1854098461072652
sS'hu'
p462
F0.19814999341964723
sS'hi'
p463
F0.14148525040567664
sS'ho'
p464
F0.18127972037411388
sS'ha'
p465
F0.15971909459794115
sS'he'
p466
F0.14807583505250937
sS'.l'
p467
F0.20050000190734865
sS'uu'
p468
F0.18749602197402718
sS'ut'
p469
F0.12465726750280447
sS'uw'
p470
F0.19989999771118167
sS'.c'
p471
F0.2008824955224991
sS'up'
p472
F0.1833487305753373
sS'us'
p473
F0.1677699836078881
sS'ur'
p474
F0.18528996278037602
sS'um'
p475
F0.20448249681076375
sS'ul'
p476
F0.20477564488848843
sS'un'
p477
F0.1826266228921414
sVui
p478
F0.19762338406443594
sVue
p479
F0.1994633769866928
sS'ud'
p480
F0.20060975504338743
sS'ug'
p481
F0.2029912229542583
sS'.s'
p482
F0.19605000257492067
sS'ua'
p483
F0.18650418859220189
sS'uc'
p484
F0.18061928150039083
sS'.w'
p485
F0.2019751278817654
sS'aa'
p486
F0.20100999224185945
sS'ac'
p487
F0.19891372408602184
sS'ab'
p488
F0.1704379637102226
sS'ad'
p489
F0.16475934867086411
sS'ag'
p490
F0.14878014389920008
sS'Ty'
p491
F0.19829999446868898
sS'ai'
p492
F0.15820494193004014
sS'Tw'
p493
F0.2018499994277954
sS'ak'
p494
F0.17991528643868224
sS'Tu'
p495
F0.20120849916934969
sS'Tr'
p496
F0.20457775441408158
sS'al'
p497
F0.16751490888025444
sS'ao'
p498
F0.19579999685287477
sS'an'
p499
F0.12390240881144607
sS"''"
p500
F0.17236855300576526
sS'ap'
p501
F0.1868639593323292
sS'as'
p502
F0.15429007789029955
sS'ar'
p503
F0.1801406194710973
sS'au'
p504
F0.18880865342308953
sVat
p505
F0.15207124986403217
sS'aw'
p506
F0.1898100082874298
sVav
p507
F0.18341520427836402
sS'ay'
p508
F0.17448982210559227
sS'ax'
p509
F0.19870000123977663
sVTe
p510
F0.20402961273610593
sS'80'
p511
F0.2016075043678284
sS'Ta'
p512
F0.20292000038027766
sS'A '
p513
F0.2024000072479248
sS'nk'
p514
F0.1847851245976659
sS'nl'
p515
F0.20064112496972086
sS'nm'
p516
F0.1918100028038025
sS'nn'
p517
F0.17655680768094417
sS'no'
p518
F0.19198041929104478
sS'na'
p519
F0.16834228954842967
sS'44'
p520
F0.19674999952316286
sS'nc'
p521
F0.19038279581731915
sS'nd'
p522
F0.15710057649564765
sVTS
p523
F0.19625
sS'nf'
p524
F0.1935239261942506
sS'ng'
p525
F0.21307416700193124
sS'ny'
p526
F0.19989999771118167
sS'TM'
p527
F0.19784999132156372
sS'np'
p528
F0.19989615317553283
sS'u'
p529
F0.1965000057220459
sS'ns'
p530
F0.1800884546510855
sVnt
p531
F0.1850857886454157
sS'nu'
p532
F0.19185938412547113
sS'a '
p533
F0.14269486876361298
sS"'t"
p534
F0.20130000352859498
sS"'s"
p535
F0.19429999828338623
sS"'r"
p536
F0.19721249687671663
sS'm'
p537
F0.19832536236047746
sS'{}'
p538
F0.19315969715358317
sS'AN'
p539
F0.1975000047683716
sS'AP'
p540
F0.1990000033378601
sS"'m"
p541
F0.2032422450840473
sS'QK'
p542
F0.19964999198913574
sS'e'
p543
F0.19490013949692253
sS'n '
p544
F0.20385640992200216
sS'Am'
p545
F0.20131998705863954
sS'Al'
p546
F0.20075250256061555
sS'An'
p547
F0.2009449886083603
sS'Sh'
p548
F0.19885000228881838
sS'Au'
p549
F0.20299251008033753
sS'4a'
p550
F0.20115000247955322
s.